     1                                 %line 1+1 test.asm
     2                                 [section .data]
     3                                 
     4                                 TRUE equ 1
     5                                 FALSE equ 0
     6                                 
     7                                 EXIT_SUCCESS equ 0
     8                                 
     9                                 STDIN equ 0
    10                                 STDOUT equ 1
    11                                 STDERR equ 2
    12                                 
    13                                 SYS_read equ 0
    14                                 SYS_write equ 1
    15                                 SYS_open equ 2
    16                                 SYS_close equ 3
    17                                 SYS_fork equ 57
    18                                 SYS_exit equ 60
    19                                 SYS_creat equ 85
    20                                 SYS_time equ 201
    21                                 
    22                                 LF equ 10
    23                                 NULL equ 0
    24                                 ESC equ 27
    25                                 
    26                                 
    27                                 
    28                                 
    29 00000000 0D0000000B00000004-    xList1 dd 13, 11, 4, 6, 5
    30 00000000 000000060000000500-
    31 00000000 0000               
    32 00000014 07000000080000000A-     dd 7, 8, 10, 1, 3
    33 00000014 000000010000000300-
    34 00000014 0000               
    35                                 
    36 00000028 CE040000D10400002B-    yList1 dd 1230, 1233, 1323, 1241, 1360
    37 00000028 050000D90400005005-
    38 00000028 0000               
    39 0000003C 0A0500005E040000E2-     dd 1290, 1118, 1250, 1475, 1423
    40 0000003C 040000C30500008F05-
    41 0000003C 0000               
    42 00000050 BA04000039050000CA-     dd 1210, 1337, 1226
    43 00000050 040000             
    44 0000005C 0A000000               len1 dd 10
    45 00000060 00000000               xMin1 dd 0
    46 00000064 00000000               xMed1 dd 0
    47 00000068 00000000               xMax1 dd 0
    48 0000006C 00000000               xSum1 dd 0
    49 00000070 00000000               xAve1 dd 0
    50 00000074 00000000               yMin1 dd 0
    51 00000078 00000000               yMed1 dd 0
    52 0000007C 00000000               yMax1 dd 0
    53 00000080 00000000               ySum1 dd 0
    54 00000084 00000000               yAve1 dd 0
    55 00000088 0000000000000000       r1 dq 0
    56                                 
    57                                 
    58 00000090 7F0000008700000075-    xList2 dd 127, 135, 117, 115, 261
    59 00000090 000000730000000501-
    60 00000090 0000               
    61 000000A4 D2000000DC000000DE-     dd 210, 220, 222, 224, 226
    62 000000A4 000000E0000000E200-
    63 000000A4 0000               
    64 000000B8 81000000710000009B-     dd 129, 113, 155, 235, 237
    65 000000B8 000000EB000000ED00-
    66 000000B8 0000               
    67 000000CC DB000000F10000008F-     dd 219, 241, 143, 245, 149
    68 000000CC 000000F50000009500-
    69 000000CC 0000               
    70 000000E0 9900000077000000DF-     dd 153, 119, 223, 117, 259
    71 000000E0 000000750000000301-
    72 000000E0 0000               
    73 000000F4 7400000073000000FB-     dd 116, 115, 251, 267, 169
    74 000000F4 0000000B010000A900-
    75 000000F4 0000               
    76 00000108 E4000000E600000084-     dd 228, 230, 132, 133, 221
    77 00000108 00000085000000DD00-
    78 00000108 0000               
    79 0000011C 8A000000F00000008E-     dd 138, 240, 142, 244, 246
    80 0000011C 000000F4000000F600-
    81 0000011C 0000               
    82 00000130 DD0000007D000000FB-     dd 221, 125, 251, 213, 119
    83 00000130 000000D50000007700-
    84 00000130 0000               
    85 00000144 9D0000002B01000099-     dd 157, 299, 153, 265, 279
    86 00000144 000000090100001701-
    87 00000144 0000               
    88 00000158 7F0000009B000000D9-    yList2 dd 127, 155, 217, 115, 161
    89 00000158 00000073000000A100-
    90 00000158 0000               
    91 0000016C 1B010000D600000079-     dd 283, 214, 121, 228, 212
    92 0000016C 000000E4000000D400-
    93 0000016C 0000               
    94 00000180 7E00000075000000E3-     dd 126, 117, 227, 127, 284
    95 00000180 0000007F0000001C01-
    96 00000180 0000               
    97 00000194 AE000000D40000007D-     dd 174, 212, 125, 126, 229
    98 00000194 0000007E000000E500-
    99 00000194 0000               
   100 000001A8 20010000D70000006F-     dd 288, 215, 111, 118, 215
   101 000001A8 00000076000000D700-
   102 000001A8 0000               
   103 000001BC 7E00000075000000D7-     dd 126, 117, 215, 210, 114
   104 000001BC 000000D20000007200-
   105 000001BC 0000               
   106 000001D0 7C000000F300000086-     dd 124, 243, 134, 212, 113
   107 000001D0 000000D40000007100-
   108 000001D0 0000               
   109 000001E4 AC0000001401000000-     dd 172, 276, 256, 265, 156
   110 000001E4 010000090100009C00-
   111 000001E4 0000               
   112 000001F8 FD0000008C00000023-     dd 253, 140, 291, 268, 162
   113 000001F8 0100000C010000A200-
   114 000001F8 0000               
   115 0000020C F6000000F7000000A7-     dd 246, 247, 167, 177, 144
   116 0000020C 000000B10000009000-
   117 0000020C 0000               
   118 00000220 32000000               len2 dd 50
   119 00000224 00000000               xMin2 dd 0
   120 00000228 00000000               xMed2 dd 0
   121 0000022C 00000000               xMax2 dd 0
   122 00000230 00000000               xSum2 dd 0
   123 00000234 00000000               xAve2 dd 0
   124 00000238 00000000               yMin2 dd 0
   125 0000023C 00000000               yMed2 dd 0
   126 00000240 00000000               yMax2 dd 0
   127 00000244 00000000               ySum2 dd 0
   128 00000248 00000000               yAve2 dd 0
   129 0000024C 0000000000000000       r2 dq 0
   130                                 
   131                                 
   132 00000254 2C000000220000000D-    xList3 dd 44, 34, 13, 21, 16
   133 00000254 000000150000001000-
   134 00000254 0000               
   135 00000268 290000002100000018-     dd 41, 33, 24, 13, 23
   136 00000268 0000000D0000001700-
   137 00000268 0000               
   138 0000027C 120000002B0000000C-     dd 18, 43, 12, 10, 10
   139 0000027C 0000000A0000000A00-
   140 0000027C 0000               
   141 00000290 180000002B00000018-     dd 24, 43, 24, 12, 23
   142 00000290 0000000C0000001700-
   143 00000290 0000               
   144 000002A4 35000000280000000B-     dd 53, 40, 11, 18, 12
   145 000002A4 000000120000000C00-
   146 000002A4 0000               
   147 000002B8 2F0000001B00000009-     dd 47, 27, 9, 17, 19
   148 000002B8 000000110000001300-
   149 000002B8 0000               
   150 000002CC 530000003200000001-     dd 83, 50, 1, 28, 15
   151 000002CC 0000001C0000000F00-
   152 000002CC 0000               
   153 000002E0 530000000E0000000B-     dd 83, 14, 11, 18, 12
   154 000002E0 000000120000000C00-
   155 000002E0 0000               
   156 000002F4 1A0000001100000011-     dd 26, 17, 17, 17, 14
   157 000002F4 000000110000000E00-
   158 000002F4 0000               
   159 00000308 4A0000000C0000000F-     dd 74, 12, 15, 16, 29
   160 00000308 000000100000001D00-
   161 00000308 0000               
   162 0000031C 12000000050000000B-     dd 18, 5, 11, 18, 15
   163 0000031C 000000120000000F00-
   164 0000031C 0000               
   165 00000330 1A000000110000000F-     dd 26, 17, 15, 3, 14
   166 00000330 000000030000000E00-
   167 00000330 0000               
   168 00000344 180000000D0000000E-     dd 24, 13, 14, 12, 13
   169 00000344 0000000C0000000D00-
   170 00000344 0000               
   171 00000358 480000001A00000010-     dd 72, 26, 16, 15, 16
   172 00000358 0000000F0000001000-
   173 00000358 0000               
   174 0000036C 350000000A0000000B-     dd 53, 10, 11, 18, 12
   175 0000036C 000000120000000C00-
   176 0000036C 0000               
   177 00000380 2E0000001100000011-     dd 46, 17, 17, 17, 14
   178 00000380 000000110000000E00-
   179 00000380 0000               
   180 00000394 370000000C0000000F-     dd 55, 12, 15, 19, 14
   181 00000394 000000130000000E00-
   182 00000394 0000               
   183 000003A8 40000000020000000F-     dd 64, 2, 15, 12, 12
   184 000003A8 0000000C0000000C00-
   185 000003A8 0000               
   186 000003BC 530000000F0000000B-     dd 83, 15, 11, 18, 11
   187 000003BC 000000120000000B00-
   188 000003BC 0000               
   189 000003D0 420000001100000011-     dd 66, 17, 17, 17, 14
   190 000003D0 000000110000000E00-
   191 000003D0 0000               
   192 000003E4 36010000DC000000E8-    yList3 dd 310, 220, 232, 324, 326
   193 000003E4 000000440100004601-
   194 000003E4 0000               
   195 000003F8 3F01000039010000EB-     dd 319, 313, 235, 235, 337
   196 000003F8 000000EB0000005101-
   197 000003F8 0000               
   198 0000040C 5301000055010000F3-     dd 339, 341, 243, 245, 249
   199 0000040C 000000F5000000F900-
   200 0000040C 0000               
   201 00000420 FD000000DB000000D5-     dd 253, 219, 213, 210, 229
   202 00000420 000000D2000000E500-
   203 00000420 0000               
   204 00000434 D8000000D70000005F-     dd 216, 215, 351, 367, 219
   205 00000434 0100006F010000DB00-
   206 00000434 0000               
   207 00000448 480100004A0100004C-     dd 328, 330, 332, 233, 321
   208 00000448 010000E90000004101-
   209 00000448 0000               
   210 0000045C EE00000054010000F2-     dd 238, 340, 242, 244, 346
   211 0000045C 000000F40000005A01-
   212 0000045C 0000               
   213 00000470 41010000450100005F-     dd 321, 325, 351, 213, 219
   214 00000470 010000D5000000DB00-
   215 00000470 0000               
   216 00000484 0101000053010000FD-     dd 257, 339, 253, 365, 379
   217 00000484 0000006D0100007B01-
   218 00000484 0000               
   219 00000498 E3000000630100003D-     dd 227, 355, 317, 215, 211
   220 00000498 010000D7000000D300-
   221 00000498 0000               
   222 000004AC 7F0100003A01000037-     dd 383, 314, 311, 328, 312
   223 000004AC 010000480100003801-
   224 000004AC 0000               
   225 000004C0 E2000000D9000000E3-     dd 226, 217, 227, 227, 314
   226 000004C0 000000E30000003A01-
   227 000004C0 0000               
   228 000004D4 3E0100003B01000037-     dd 318, 315, 311, 218, 315
   229 000004D4 010000DA0000003B01-
   230 000004D4 0000               
   231 000004E8 E2000000D9000000D7-     dd 226, 217, 215, 211, 314
   232 000004E8 000000D30000003A01-
   233 000004E8 0000               
   234 000004FC 44010000570100004E-     dd 324, 343, 334, 312, 213
   235 000004FC 01000038010000D500-
   236 000004FC 0000               
   237 00000510 420100001401000064-     dd 322, 276, 356, 265, 356
   238 00000510 010000090100006401-
   239 00000510 0000               
   240 00000524 FD000000F000000023-     dd 253, 240, 291, 368, 322
   241 00000524 010000700100004201-
   242 00000524 0000               
   243 00000538 F6000000F70000006F-     dd 246, 247, 367, 377, 244
   244 00000538 01000079010000F400-
   245 00000538 0000               
   246 0000054C FF0000004C01000081-     dd 255, 332, 385, 249, 314
   247 0000054C 010000F90000003A01-
   248 0000054C 0000               
   249 00000560 6C0100007401000013-     dd 364, 372, 275, 262, 372
   250 00000560 010000060100007401-
   251 00000560 0000               
   252 00000574 64000000               len3 dd 100
   253 00000578 00000000               xMin3 dd 0
   254 0000057C 00000000               xMed3 dd 0
   255 00000580 00000000               xMax3 dd 0
   256 00000584 00000000               xSum3 dd 0
   257 00000588 00000000               xAve3 dd 0
   258 0000058C 00000000               yMin3 dd 0
   259 00000590 00000000               yMed3 dd 0
   260 00000594 00000000               yMax3 dd 0
   261 00000598 00000000               ySum3 dd 0
   262 0000059C 00000000               yAve3 dd 0
   263 000005A0 0000000000000000       r3 dq 0
   264 000005A8 03000000               div3 dd 3
   265                                 
   266 000005AC 00000000               numtest dd 0
   267                                 
   268                                 
   269                                 
   270                                 
   271                                 [section .text]
   272                                 [global _start]
   273                                 _start:
   274                                 
   275 00000000 53                     push rbx
   276 00000001 4152                   push r10
   277 00000003 4153                   push r11
   278 00000005 4154                   push r12
   279 00000007 4155                   push r13
   280 00000009 4156                   push r14
   281 0000000B 4157                   push r15
   282                                 
   283 0000000D 48C7C7[00000000]       mov rdi, xList1
   284 00000014 48C7C600000000         mov rsi, 0
   285 0000001B 8B3425[00000000]       mov esi, dword[len1]
   286                                 
   287 00000022 48C7C300000000         mov rbx, 0
   288 00000029 49C7C400000000         mov r12, 0
   289 00000030 49C7C500000000         mov r13, 0
   290 00000037 49C7C200000000         mov r10, 0
   291 0000003E 49C7C600000000         mov r14, 0
   292 00000045 49C7C300000000         mov r11, 0
   293 0000004C 48C7C000000000         mov rax, 0
   294                                 
   295                                 
   296 00000053 41BA01000000           mov r10d, 1
   297                                 
   298                                 
   299                                 
   300 00000059 4489D0                 mov eax, r10d
   301 0000005C F72425[00000000]       mul dword[div3]
   302 00000063 FFC0                   inc eax
   303 00000065 39F0                   cmp eax, esi
   304 00000067 7D1C                   jge skipFirstWhile
   305 00000069 48C7C000000000         mov rax, 0
   306 00000070 4489D0                 mov eax, r10d
   307                                 
   308                                 firstWhile:
   309 00000073 4189C6                 mov r14d, eax
   310 00000076 F72425[00000000]       mul dword[div3]
   311 0000007D FFC0                   inc eax
   312 0000007F 89C3                   mov ebx, eax
   313 00000081 FFCB                   dec ebx
   314                                 
   315                                 
   316 00000083 39F3                   cmp ebx, esi
   317 00000085 7CEA                   jl firstWhile
   318                                 
   319                                 skipFirstWhile:
   320 00000087 4589F2                 mov r10d, r14d
   321 0000008A 48C7C000000000         mov rax, 0
   322                                 
   323 00000091 4183FA00               cmp r10d, 0
   324 00000095 7C74                   jl skipSecondWhile
   325                                 
   326                                 secondWhile:
   327 00000097 4589D3                  mov r11d, r10d
   328 0000009A 41FFCB                  dec r11d
   329 0000009D 4139F3                  cmp r11d, esi
   330 000000A0 7D4F                    jge skipInner
   331                                 
   332                                  forInner:
   333                                 
   334 000000A2 468B249F                mov r12d, dword[rdi + (r11 * 4)]
   335                                 
   336                                 
   337 000000A6 4589DD                  mov r13d, r11d
   338 000000A9 49C7C700000000          mov r15, 0
   339 000000B0 4589EF                  mov r15d, r13d
   340 000000B3 4529D7                  sub r15d, r10d
   341 000000B6 4539D5                  cmp r13d, r10d
   342 000000B9 7C2A                    jl skipThis
   343 000000BB 463924BF                cmp dword[rdi + (r15 * 4)], r12d
   344 000000BF 7E24                    jle skipThis2
   345                                 
   346                                 
   347                                 
   348                                  forInner2:
   349 000000C1 49C7C700000000          mov r15, 0
   350 000000C8 4589EF                  mov r15d, r13d
   351 000000CB 4529D7                  sub r15d, r10d
   352 000000CE 428B04BF                mov eax, dword[rdi + (r15 * 4)]
   353 000000D2 428904AF                mov dword[rdi + (r13 * 4)], eax
   354 000000D6 4589FD                  mov r13d, r15d
   355                                 
   356 000000D9 4539D5                  cmp r13d, r10d
   357 000000DC 7C07                    jl skipThis
   358 000000DE 4529D7                  sub r15d, r10d
   359 000000E1 463924BF                cmp dword[rdi + (r15 * 4)], r12d
   360 000000E5 7FD8                    jg forInner2
   361                                 
   362                                 
   363                                 
   364                                  skipThis:
   365                                  skipThis2:
   366                                 
   367                                 
   368 000000E7 468924AF                mov dword[rdi + (r13 * 4)], r12d
   369 000000EB 41FFC3                  inc r11d
   370 000000EE 4139F3                  cmp r11d, esi
   371 000000F1 7CAD                    jl forInner
   372                                 
   373                                  skipInner:
   374                                 
   375 000000F3 48C7C000000000          mov rax, 0
   376 000000FA 4489D0                  mov eax, r10d
   377 000000FD F73425[00000000]        div dword[div3]
   378 00000104 4189C2                  mov r10d, eax
   379 00000107 4183FA00                cmp r10d, 0
   380 0000010B 7F88                    jg secondWhile
   381                                 
   382                                 skipSecondWhile:
   383                                 
   384 0000010D 5B                     pop rbx
   385 0000010E 415B                   pop r11
   386 00000110 415A                   pop r10
   387 00000112 415C                   pop r12
   388 00000114 415D                   pop r13
   389 00000116 415E                   pop r14
   390 00000118 415F                   pop r15
   391                                 
   392                                 
   393                                 
   394                                 
   395                                 
   396                                 last:
   397 0000011A 48C7C03C000000          mov rax, SYS_exit
   398 00000121 48C7C300000000          mov rbx, EXIT_SUCCESS
   399 00000128 0F05                    syscall
   400                                 
